; Function Attrs: mustprogress uwtable
define void @_ZN7jsonnet8internal12CompilerPass5visitEPNS0_9ImportbinE(ptr noundef nonnull align 8 dereferenceable(16) %0, ptr noundef readonly captures(none) %1) unnamed_addr #4 align 2 {
  %3 = getelementptr inbounds nuw i8, ptr %1, i64 128
  %4 = load ptr, ptr %3, align 8, !tbaa !76
  %5 = load ptr, ptr %0, align 8, !tbaa !17
  %6 = getelementptr inbounds nuw i8, ptr %5, i64 208
  %7 = load ptr, ptr %6, align 8
  tail call void %7(ptr noundef nonnull align 8 dereferenceable(16) %0, ptr noundef %4)
  ret void
}